; Function Attrs: mustprogress nofree norecurse nosync nounwind willreturn memory(write, argmem: readwrite, inaccessiblemem: none) uwtable
define internal noundef nonnull ptr @_ZN6evmone8advanced12_GLOBAL__N_16op_gasEPKNS0_11InstructionERNS0_22AdvancedExecutionStateE(ptr noundef readonly captures(ret: address, provenance) %0, ptr noundef nonnull align 8 captures(none) dereferenceable(564) %1) #9 {
  %3 = getelementptr inbounds nuw i8, ptr %1, i64 560
  %4 = load i32, ptr %3, align 8, !tbaa !201
  %5 = zext i32 %4 to i64
  %6 = getelementptr inbounds nuw i8, ptr %0, i64 8
  %7 = load i64, ptr %6, align 8, !tbaa !77
  %8 = sub i64 %5, %7
  %9 = getelementptr inbounds nuw i8, ptr %1, i64 544
  %10 = load i64, ptr %9, align 8, !tbaa !106
  %11 = add nsw i64 %8, %10
  %12 = getelementptr inbounds nuw i8, ptr %1, i64 552
  %13 = load ptr, ptr %12, align 8, !tbaa !67
  %14 = getelementptr inbounds nuw i8, ptr %13, i64 32
  store ptr %14, ptr %12, align 8, !tbaa !67
  store i64 %11, ptr %13, align 8
  %.sroa.4.0..sroa_idx = getelementptr inbounds nuw i8, ptr %13, i64 8
  tail call void @llvm.memset.p0.i64(ptr noundef nonnull align 8 dereferenceable(24) %.sroa.4.0..sroa_idx, i8 0, i64 24, i1 false)
  %15 = getelementptr inbounds nuw i8, ptr %0, i64 16
  ret ptr %15
}